; ModuleID = '2/134.c'
source_filename = "2/134.c"
target datalayout = "e-m:e-p270:32:32-p271:32:32-p272:64:64-i64:64-f80:128-n8:16:32:64-S128"
target triple = "x86_64-pc-linux-gnu"

%struct.Book = type { i32, [26 x i8] }

@.str = private unnamed_addr constant [3 x i8] c"%d\00", align 1
@.str.1 = private unnamed_addr constant [5 x i8] c"%d%s\00", align 1
@.str.2 = private unnamed_addr constant [7 x i8] c"%c\0A%d\0A\00", align 1
@.str.3 = private unnamed_addr constant [4 x i8] c"%d\0A\00", align 1

; Function Attrs: noinline nounwind uwtable
define dso_local i32 @main() #0 {
  %1 = alloca i32, align 4
  %2 = alloca [1000 x %struct.Book], align 16
  %3 = alloca i32, align 4
  %4 = alloca i32, align 4
  %5 = alloca i32, align 4
  %6 = alloca i32, align 4
  %7 = alloca i32, align 4
  %8 = alloca [26 x i32], align 16
  %9 = alloca i8, align 1
  store i32 0, i32* %1, align 4
  store i32 0, i32* %6, align 4
  %10 = bitcast [26 x i32]* %8 to i8*
  call void @llvm.memset.p0i8.i64(i8* align 16 %10, i8 0, i64 104, i1 false)
  %11 = call i32 (i8*, ...) @__isoc99_scanf(i8* getelementptr inbounds ([3 x i8], [3 x i8]* @.str, i64 0, i64 0), i32* %3)
  store i32 0, i32* %4, align 4
  br label %12

12:                                               ; preds = %26, %0
  %13 = load i32, i32* %4, align 4
  %14 = load i32, i32* %3, align 4
  %15 = icmp slt i32 %13, %14
  br i1 %15, label %16, label %29

16:                                               ; preds = %12
  %17 = load i32, i32* %4, align 4
  %18 = sext i32 %17 to i64
  %19 = getelementptr inbounds [1000 x %struct.Book], [1000 x %struct.Book]* %2, i64 0, i64 %18
  %20 = getelementptr inbounds %struct.Book, %struct.Book* %19, i32 0, i32 0
  %21 = load i32, i32* %4, align 4
  %22 = sext i32 %21 to i64
  %23 = getelementptr inbounds [1000 x %struct.Book], [1000 x %struct.Book]* %2, i64 0, i64 %22
  %24 = getelementptr inbounds %struct.Book, %struct.Book* %23, i32 0, i32 1
  %25 = call i32 (i8*, ...) @__isoc99_scanf(i8* getelementptr inbounds ([5 x i8], [5 x i8]* @.str.1, i64 0, i64 0), i32* %20, [26 x i8]* %24)
  br label %26

26:                                               ; preds = %16
  %27 = load i32, i32* %4, align 4
  %28 = add nsw i32 %27, 1
  store i32 %28, i32* %4, align 4
  br label %12

29:                                               ; preds = %12
  store i32 0, i32* %4, align 4
  br label %30

30:                                               ; preds = %65, %29
  %31 = load i32, i32* %4, align 4
  %32 = load i32, i32* %3, align 4
  %33 = icmp slt i32 %31, %32
  br i1 %33, label %34, label %68

34:                                               ; preds = %30
  store i32 0, i32* %5, align 4
  br label %35

35:                                               ; preds = %61, %34
  %36 = load i32, i32* %4, align 4
  %37 = sext i32 %36 to i64
  %38 = getelementptr inbounds [1000 x %struct.Book], [1000 x %struct.Book]* %2, i64 0, i64 %37
  %39 = getelementptr inbounds %struct.Book, %struct.Book* %38, i32 0, i32 1
  %40 = load i32, i32* %5, align 4
  %41 = sext i32 %40 to i64
  %42 = getelementptr inbounds [26 x i8], [26 x i8]* %39, i64 0, i64 %41
  %43 = load i8, i8* %42, align 1
  %44 = sext i8 %43 to i32
  %45 = icmp ne i32 %44, 0
  br i1 %45, label %46, label %64

46:                                               ; preds = %35
  %47 = load i32, i32* %4, align 4
  %48 = sext i32 %47 to i64
  %49 = getelementptr inbounds [1000 x %struct.Book], [1000 x %struct.Book]* %2, i64 0, i64 %48
  %50 = getelementptr inbounds %struct.Book, %struct.Book* %49, i32 0, i32 1
  %51 = load i32, i32* %5, align 4
  %52 = sext i32 %51 to i64
  %53 = getelementptr inbounds [26 x i8], [26 x i8]* %50, i64 0, i64 %52
  %54 = load i8, i8* %53, align 1
  %55 = sext i8 %54 to i32
  %56 = sub nsw i32 %55, 65
  %57 = sext i32 %56 to i64
  %58 = getelementptr inbounds [26 x i32], [26 x i32]* %8, i64 0, i64 %57
  %59 = load i32, i32* %58, align 4
  %60 = add nsw i32 %59, 1
  store i32 %60, i32* %58, align 4
  br label %61

61:                                               ; preds = %46
  %62 = load i32, i32* %5, align 4
  %63 = add nsw i32 %62, 1
  store i32 %63, i32* %5, align 4
  br label %35

64:                                               ; preds = %35
  br label %65

65:                                               ; preds = %64
  %66 = load i32, i32* %4, align 4
  %67 = add nsw i32 %66, 1
  store i32 %67, i32* %4, align 4
  br label %30

68:                                               ; preds = %30
  store i32 0, i32* %4, align 4
  br label %69

69:                                               ; preds = %88, %68
  %70 = load i32, i32* %4, align 4
  %71 = icmp slt i32 %70, 26
  br i1 %71, label %72, label %91

72:                                               ; preds = %69
  %73 = load i32, i32* %4, align 4
  %74 = sext i32 %73 to i64
  %75 = getelementptr inbounds [26 x i32], [26 x i32]* %8, i64 0, i64 %74
  %76 = load i32, i32* %75, align 4
  %77 = load i32, i32* %6, align 4
  %78 = icmp sgt i32 %76, %77
  br i1 %78, label %79, label %87

79:                                               ; preds = %72
  %80 = load i32, i32* %4, align 4
  %81 = sext i32 %80 to i64
  %82 = getelementptr inbounds [26 x i32], [26 x i32]* %8, i64 0, i64 %81
  %83 = load i32, i32* %82, align 4
  store i32 %83, i32* %6, align 4
  %84 = load i32, i32* %4, align 4
  %85 = add nsw i32 65, %84
  %86 = trunc i32 %85 to i8
  store i8 %86, i8* %9, align 1
  br label %87

87:                                               ; preds = %79, %72
  br label %88

88:                                               ; preds = %87
  %89 = load i32, i32* %4, align 4
  %90 = add nsw i32 %89, 1
  store i32 %90, i32* %4, align 4
  br label %69

91:                                               ; preds = %69
  %92 = load i8, i8* %9, align 1
  %93 = sext i8 %92 to i32
  %94 = load i32, i32* %6, align 4
  %95 = call i32 (i8*, ...) @printf(i8* getelementptr inbounds ([7 x i8], [7 x i8]* @.str.2, i64 0, i64 0), i32 %93, i32 %94)
  store i32 0, i32* %4, align 4
  br label %96

96:                                               ; preds = %137, %91
  %97 = load i32, i32* %4, align 4
  %98 = load i32, i32* %3, align 4
  %99 = icmp slt i32 %97, %98
  br i1 %99, label %100, label %140

100:                                              ; preds = %96
  store i32 0, i32* %5, align 4
  br label %101

101:                                              ; preds = %133, %100
  %102 = load i32, i32* %4, align 4
  %103 = sext i32 %102 to i64
  %104 = getelementptr inbounds [1000 x %struct.Book], [1000 x %struct.Book]* %2, i64 0, i64 %103
  %105 = getelementptr inbounds %struct.Book, %struct.Book* %104, i32 0, i32 1
  %106 = load i32, i32* %5, align 4
  %107 = sext i32 %106 to i64
  %108 = getelementptr inbounds [26 x i8], [26 x i8]* %105, i64 0, i64 %107
  %109 = load i8, i8* %108, align 1
  %110 = sext i8 %109 to i32
  %111 = icmp ne i32 %110, 0
  br i1 %111, label %112, label %136

112:                                              ; preds = %101
  %113 = load i32, i32* %4, align 4
  %114 = sext i32 %113 to i64
  %115 = getelementptr inbounds [1000 x %struct.Book], [1000 x %struct.Book]* %2, i64 0, i64 %114
  %116 = getelementptr inbounds %struct.Book, %struct.Book* %115, i32 0, i32 1
  %117 = load i32, i32* %5, align 4
  %118 = sext i32 %117 to i64
  %119 = getelementptr inbounds [26 x i8], [26 x i8]* %116, i64 0, i64 %118
  %120 = load i8, i8* %119, align 1
  %121 = sext i8 %120 to i32
  %122 = load i8, i8* %9, align 1
  %123 = sext i8 %122 to i32
  %124 = icmp eq i32 %121, %123
  br i1 %124, label %125, label %132

125:                                              ; preds = %112
  %126 = load i32, i32* %4, align 4
  %127 = sext i32 %126 to i64
  %128 = getelementptr inbounds [1000 x %struct.Book], [1000 x %struct.Book]* %2, i64 0, i64 %127
  %129 = getelementptr inbounds %struct.Book, %struct.Book* %128, i32 0, i32 0
  %130 = load i32, i32* %129, align 16
  %131 = call i32 (i8*, ...) @printf(i8* getelementptr inbounds ([4 x i8], [4 x i8]* @.str.3, i64 0, i64 0), i32 %130)
  br label %136

132:                                              ; preds = %112
  br label %133

133:                                              ; preds = %132
  %134 = load i32, i32* %5, align 4
  %135 = add nsw i32 %134, 1
  store i32 %135, i32* %5, align 4
  br label %101

136:                                              ; preds = %125, %101
  br label %137

137:                                              ; preds = %136
  %138 = load i32, i32* %4, align 4
  %139 = add nsw i32 %138, 1
  store i32 %139, i32* %4, align 4
  br label %96

140:                                              ; preds = %96
  ret i32 0
}

; Function Attrs: argmemonly nounwind willreturn
declare void @llvm.memset.p0i8.i64(i8* nocapture writeonly, i8, i64, i1 immarg) #1

declare dso_local i32 @__isoc99_scanf(i8*, ...) #2

declare dso_local i32 @printf(i8*, ...) #2


!llvm.module.flags = !{!0}
!llvm.ident = !{!1}

!0 = !{i32 1, !"wchar_size", i32 4}
!1 = !{!"clang version 10.0.0-4ubuntu1 "}
